; Function Attrs: mustprogress uwtable
define void @_ZNK7rocksdb13BlobLogRecord12CheckBlobCRCEv(ptr dead_on_unwind noalias writable sret(%"class.rocksdb::Status") align 8 %0, ptr noundef nonnull readonly align 8 captures(none) dereferenceable(80) %1) local_unnamed_addr #0 align 2 personality ptr @__gxx_personality_v0 {
  %3 = alloca %"class.rocksdb::Slice", align 8
  %4 = alloca %"class.rocksdb::Slice", align 8
  %5 = getelementptr inbounds nuw i8, ptr %1, i64 32
  %6 = load ptr, ptr %5, align 8, !tbaa !29
  %7 = getelementptr inbounds nuw i8, ptr %1, i64 40
  %8 = load i64, ptr %7, align 8, !tbaa !31
  %9 = tail call noundef i32 @_ZN7rocksdb6crc32c6ExtendEjPKcm(i32 noundef 0, ptr noundef %6, i64 noundef %8)
  %10 = getelementptr inbounds nuw i8, ptr %1, i64 48
  %11 = load ptr, ptr %10, align 8, !tbaa !29
  %12 = getelementptr inbounds nuw i8, ptr %1, i64 56
  %13 = load i64, ptr %12, align 8, !tbaa !31
  %14 = tail call noundef i32 @_ZN7rocksdb6crc32c6ExtendEjPKcm(i32 noundef %9, ptr noundef %11, i64 noundef %13)
  %15 = tail call i32 @llvm.fshl.i32(i32 %14, i32 %14, i32 17)
  %16 = add i32 %15, -1568478504
  %17 = getelementptr inbounds nuw i8, ptr %1, i64 28
  %18 = load i32, ptr %17, align 4, !tbaa !54
  %.not = icmp eq i32 %16, %18
  br i1 %.not, label %22, label %19

19:                                               ; preds = %2
  call void @llvm.lifetime.start.p0(i64 16, ptr nonnull %3) #8
  store ptr @.str.13, ptr %3, align 8, !tbaa !29
  %20 = getelementptr inbounds nuw i8, ptr %3, i64 8
  store i64 17, ptr %20, align 8, !tbaa !31
  call void @llvm.lifetime.start.p0(i64 16, ptr nonnull %4) #8
  store ptr @.str.15, ptr %4, align 8, !tbaa !29
  %21 = getelementptr inbounds nuw i8, ptr %4, i64 8
  store i64 0, ptr %21, align 8, !tbaa !31
  call void @_ZN7rocksdb6StatusC2ENS0_4CodeENS0_7SubCodeERKNS_5SliceES5_NS0_8SeverityE(ptr noundef nonnull align 8 dereferenceable(16) %0, i8 noundef zeroext 2, i8 noundef zeroext 0, ptr noundef nonnull align 8 dereferenceable(16) %3, ptr noundef nonnull align 8 dereferenceable(16) %4, i8 noundef zeroext 0)
  call void @llvm.lifetime.end.p0(i64 16, ptr nonnull %4) #8
  call void @llvm.lifetime.end.p0(i64 16, ptr nonnull %3) #8
  br label %24

22:                                               ; preds = %2
  %23 = getelementptr inbounds nuw i8, ptr %0, i64 8
  store ptr null, ptr %23, align 8, !tbaa !32, !alias.scope !58
  tail call void @llvm.memset.p0.i64(ptr noundef nonnull align 8 dereferenceable(16) %0, i8 0, i64 6, i1 false), !alias.scope !58
  br label %24

24:                                               ; preds = %22, %19
  ret void
}